; Function Attrs: nounwind uwtable
define void @Fxch_ManGenerateLitHashKeys(ptr noundef captures(none) initializes((40, 48)) %0) local_unnamed_addr #3 {
  %2 = tail call i32 @Gia_ManRandom(i32 noundef 1) #21
  %3 = getelementptr inbounds nuw i8, ptr %0, i64 192
  %4 = load i32, ptr %3, align 8, !tbaa !58
  %5 = shl nsw i32 %4, 1
  %6 = tail call noalias dereferenceable_or_null(16) ptr @malloc(i64 noundef 16) #20
  %7 = add i32 %5, -1
  %or.cond.i = icmp ult i32 %7, 15
  %spec.store.select.i = select i1 %or.cond.i, i32 16, i32 %5
  %8 = getelementptr inbounds nuw i8, ptr %6, i64 4
  store i32 0, ptr %8, align 4, !tbaa !26
  store i32 %spec.store.select.i, ptr %6, align 8, !tbaa !23
  %.not.i = icmp eq i32 %spec.store.select.i, 0
  br i1 %.not.i, label %Vec_IntAlloc.exit, label %9

9:                                                ; preds = %1
  %10 = sext i32 %spec.store.select.i to i64
  %11 = shl nsw i64 %10, 2
  %12 = tail call noalias ptr @malloc(i64 noundef %11) #20
  br label %Vec_IntAlloc.exit

Vec_IntAlloc.exit:                                ; preds = %1, %9
  %13 = phi ptr [ %12, %9 ], [ null, %1 ]
  %14 = getelementptr inbounds nuw i8, ptr %6, i64 8
  store ptr %13, ptr %14, align 8, !tbaa !25
  %15 = getelementptr inbounds nuw i8, ptr %0, i64 40
  store ptr %6, ptr %15, align 8, !tbaa !51
  %16 = icmp sgt i32 %4, 0
  br i1 %16, label %.lr.ph, label %._crit_edge

.lr.ph:                                           ; preds = %Vec_IntAlloc.exit, %Vec_IntPush.exit
  %.05 = phi i32 [ %51, %Vec_IntPush.exit ], [ 0, %Vec_IntAlloc.exit ]
  %17 = load ptr, ptr %15, align 8, !tbaa !51
  %18 = tail call i32 @Gia_ManRandom(i32 noundef 0) #21
  %19 = and i32 %18, 67108863
  %20 = getelementptr inbounds nuw i8, ptr %17, i64 4
  %21 = load i32, ptr %20, align 4, !tbaa !26
  %22 = load i32, ptr %17, align 8, !tbaa !23
  %23 = icmp eq i32 %21, %22
  br i1 %23, label %24, label %.Vec_IntGrow.exit10_crit_edge.i

.Vec_IntGrow.exit10_crit_edge.i:                  ; preds = %.lr.ph
  %.phi.trans.insert.i = getelementptr inbounds nuw i8, ptr %17, i64 8
  %.pre.i = load ptr, ptr %.phi.trans.insert.i, align 8, !tbaa !25
  br label %Vec_IntPush.exit

24:                                               ; preds = %.lr.ph
  %25 = icmp slt i32 %21, 16
  br i1 %25, label %26, label %34

26:                                               ; preds = %24
  %27 = getelementptr inbounds nuw i8, ptr %17, i64 8
  %28 = load ptr, ptr %27, align 8, !tbaa !25
  %.not9.i.i = icmp eq ptr %28, null
  br i1 %.not9.i.i, label %31, label %29

29:                                               ; preds = %26
  %30 = tail call dereferenceable_or_null(64) ptr @realloc(ptr noundef nonnull %28, i64 noundef 64) #22
  br label %Vec_IntGrow.exit.i

31:                                               ; preds = %26
  %32 = tail call noalias dereferenceable_or_null(64) ptr @malloc(i64 noundef 64) #20
  br label %Vec_IntGrow.exit.i

Vec_IntGrow.exit.i:                               ; preds = %31, %29
  %33 = phi ptr [ %30, %29 ], [ %32, %31 ]
  store ptr %33, ptr %27, align 8, !tbaa !25
  store i32 16, ptr %17, align 8, !tbaa !23
  br label %Vec_IntPush.exit

34:                                               ; preds = %24
  %35 = shl nuw nsw i32 %21, 1
  %36 = getelementptr inbounds nuw i8, ptr %17, i64 8
  %37 = load ptr, ptr %36, align 8, !tbaa !25
  %.not9.i9.i = icmp eq ptr %37, null
  %38 = zext nneg i32 %35 to i64
  %39 = shl nuw nsw i64 %38, 2
  br i1 %.not9.i9.i, label %42, label %40

40:                                               ; preds = %34
  %41 = tail call ptr @realloc(ptr noundef nonnull %37, i64 noundef %39) #22
  br label %44

42:                                               ; preds = %34
  %43 = tail call noalias ptr @malloc(i64 noundef %39) #20
  br label %44

44:                                               ; preds = %42, %40
  %45 = phi ptr [ %41, %40 ], [ %43, %42 ]
  store ptr %45, ptr %36, align 8, !tbaa !25
  store i32 %35, ptr %17, align 8, !tbaa !23
  br label %Vec_IntPush.exit

Vec_IntPush.exit:                                 ; preds = %.Vec_IntGrow.exit10_crit_edge.i, %Vec_IntGrow.exit.i, %44
  %46 = phi ptr [ %.pre.i, %.Vec_IntGrow.exit10_crit_edge.i ], [ %45, %44 ], [ %33, %Vec_IntGrow.exit.i ]
  %47 = load i32, ptr %20, align 4, !tbaa !26
  %48 = add nsw i32 %47, 1
  store i32 %48, ptr %20, align 4, !tbaa !26
  %49 = sext i32 %47 to i64
  %50 = getelementptr inbounds i32, ptr %46, i64 %49
  store i32 %19, ptr %50, align 4, !tbaa !60
  %51 = add nuw nsw i32 %.05, 1
  %52 = load i32, ptr %3, align 8, !tbaa !58
  %53 = shl nsw i32 %52, 1
  %54 = icmp slt i32 %51, %53
  br i1 %54, label %.lr.ph, label %._crit_edge, !llvm.loop !68

._crit_edge:                                      ; preds = %Vec_IntPush.exit, %Vec_IntAlloc.exit
  ret void
}